target datalayout = "e-m:e-p270:32:32-p271:32:32-p272:64:64-i64:64-i128:128-f80:128-n8:16:32:64-S128"
target triple = "x86_64-pc-linux-gnu"

%struct._zend_accel_globals = type { i8, i8, i8, i8, i8, %struct._zend_accel_directives, ptr, ptr, [32 x i8], [32 x i8], i32, i8, i32, i8, i32, i64, i64, %struct._zend_array, i64, ptr, ptr, ptr, ptr, %struct._zend_string, [32768 x i8] }
%struct._zend_accel_directives = type { i64, i64, double, ptr, i64, i8, i8, i8, i8, i8, i8, i8, i8, i8, i8, i8, i64, i64, ptr, ptr, i64, i64, i64, i64, i64, ptr, ptr, ptr, i8, i8, i8, ptr, ptr }
%struct._zend_array = type { %struct._zend_refcounted_h, %union.anon.1, i32, %union.anon.2, i32, i32, i32, i32, i64, ptr }
%struct._zend_refcounted_h = type { i32, %union.anon.0 }
%union.anon.0 = type { i32 }
%union.anon.1 = type { i32 }
%union.anon.2 = type { ptr }
%struct._zend_string = type { %struct._zend_refcounted_h, i64, i64, [1 x i8] }
%struct._zend_persistent_script = type { %struct._zend_script, i64, i32, i64, i8, i8, i8, i32, i32, ptr, ptr, ptr, i64, %struct.zend_persistent_script_dynamic_members }
%struct._zend_script = type { ptr, %struct._zend_op_array, %struct._zend_array, %struct._zend_array }
%struct._zend_op_array = type { i8, [3 x i8], i32, ptr, ptr, ptr, i32, i32, ptr, ptr, ptr, ptr, i32, i32, i32, i32, ptr, ptr, ptr, ptr, ptr, i32, i32, ptr, ptr, ptr, i32, i32, i32, i32, ptr, ptr, [6 x ptr] }
%struct.zend_persistent_script_dynamic_members = type { i64, i64, i32, i64 }
%struct._zend_accel_shared_globals = type { i64, i64, i64, i64, i64, i64, %struct._zend_accel_hash, i64, i64, i64, i64, i8, i8, i32, i8, i8, i8, ptr, ptr, [2 x i32], ptr, ptr, %struct._zend_string_table }
%struct._zend_accel_hash = type { ptr, ptr, i32, i32, i32 }
%struct._zend_string_table = type { i32, i32, ptr, ptr, ptr, ptr }
%struct.zend_type = type { ptr, i32 }
%struct.zend_type_list = type { i32, [1 x %struct.zend_type] }

@accel_globals = external global %struct._zend_accel_globals, align 8
@accel_shared_globals = external global ptr, align 8

; Function Attrs: nounwind uwtable
define internal void @zend_persist_type_calc(ptr noundef %0) #0 {
  %2 = alloca ptr, align 8
  %3 = alloca ptr, align 8
  %4 = alloca ptr, align 8
  %5 = alloca ptr, align 8
  %6 = alloca ptr, align 8
  %7 = alloca ptr, align 8
  %8 = alloca ptr, align 8
  store ptr %0, ptr %2, align 8
  %9 = load ptr, ptr %2, align 8
  %10 = getelementptr inbounds %struct.zend_type, ptr %9, i32 0, i32 1
  %11 = load i32, ptr %10, align 8
  %12 = and i32 %11, 4194304
  %13 = icmp ne i32 %12, 0
  br i1 %13, label %14, label %30

14:                                               ; preds = %1
  %15 = load ptr, ptr %2, align 8
  %16 = getelementptr inbounds %struct.zend_type, ptr %15, i32 0, i32 0
  %17 = load ptr, ptr %16, align 8
  %18 = getelementptr inbounds %struct.zend_type_list, ptr %17, i32 0, i32 0
  %19 = load i32, ptr %18, align 8
  %20 = sub i32 %19, 1
  %21 = zext i32 %20 to i64
  %22 = mul i64 %21, 16
  %23 = add i64 24, %22
  %24 = add i64 %23, 7
  %25 = and i64 %24, -8
  %26 = load ptr, ptr getelementptr inbounds (%struct._zend_accel_globals, ptr @accel_globals, i32 0, i32 20), align 8
  %27 = getelementptr inbounds %struct._zend_persistent_script, ptr %26, i32 0, i32 12
  %28 = load i64, ptr %27, align 8
  %29 = add i64 %28, %25
  store i64 %29, ptr %27, align 8
  br label %30

30:                                               ; preds = %14, %1
  br label %31

31:                                               ; preds = %30
  %32 = load ptr, ptr %2, align 8
  %33 = getelementptr inbounds %struct.zend_type, ptr %32, i32 0, i32 1
  %34 = load i32, ptr %33, align 8
  %35 = and i32 %34, 4194304
  %36 = icmp ne i32 %35, 0
  br i1 %36, label %37, label %50

37:                                               ; preds = %31
  %38 = load ptr, ptr %2, align 8
  %39 = getelementptr inbounds %struct.zend_type, ptr %38, i32 0, i32 0
  %40 = load ptr, ptr %39, align 8
  store ptr %40, ptr %6, align 8
  %41 = load ptr, ptr %6, align 8
  %42 = getelementptr inbounds %struct.zend_type_list, ptr %41, i32 0, i32 1
  %43 = getelementptr inbounds [1 x %struct.zend_type], ptr %42, i64 0, i64 0
  store ptr %43, ptr %4, align 8
  %44 = load ptr, ptr %4, align 8
  %45 = load ptr, ptr %6, align 8
  %46 = getelementptr inbounds %struct.zend_type_list, ptr %45, i32 0, i32 0
  %47 = load i32, ptr %46, align 8
  %48 = zext i32 %47 to i64
  %49 = getelementptr inbounds %struct.zend_type, ptr %44, i64 %48
  store ptr %49, ptr %5, align 8
  br label %54

50:                                               ; preds = %31
  %51 = load ptr, ptr %2, align 8
  store ptr %51, ptr %4, align 8
  %52 = load ptr, ptr %4, align 8
  %53 = getelementptr inbounds %struct.zend_type, ptr %52, i64 1
  store ptr %53, ptr %5, align 8
  br label %54

54:                                               ; preds = %50, %37
  br label %55

55:                                               ; preds = %135, %54
  %56 = load ptr, ptr %4, align 8
  store ptr %56, ptr %3, align 8
  %57 = load ptr, ptr %3, align 8
  %58 = getelementptr inbounds %struct.zend_type, ptr %57, i32 0, i32 1
  %59 = load i32, ptr %58, align 8
  %60 = and i32 %59, 4194304
  %61 = icmp ne i32 %60, 0
  br i1 %61, label %62, label %64

62:                                               ; preds = %55
  %63 = load ptr, ptr %3, align 8
  call void @zend_persist_type_calc(ptr noundef %63)
  br label %135

64:                                               ; preds = %55
  %65 = load ptr, ptr %3, align 8
  %66 = getelementptr inbounds %struct.zend_type, ptr %65, i32 0, i32 1
  %67 = load i32, ptr %66, align 8
  %68 = and i32 %67, 16777216
  %69 = icmp ne i32 %68, 0
  br i1 %69, label %70, label %134

70:                                               ; preds = %64
  %71 = load ptr, ptr %3, align 8
  %72 = getelementptr inbounds %struct.zend_type, ptr %71, i32 0, i32 0
  %73 = load ptr, ptr %72, align 8
  store ptr %73, ptr %7, align 8
  br label %74

74:                                               ; preds = %70
  %75 = load ptr, ptr getelementptr inbounds (%struct._zend_accel_globals, ptr @accel_globals, i32 0, i32 20), align 8
  %76 = getelementptr inbounds %struct._zend_persistent_script, ptr %75, i32 0, i32 4
  %77 = load i8, ptr %76, align 8
  %78 = trunc i8 %77 to i1
  br i1 %78, label %79, label %92

79:                                               ; preds = %74
  %80 = load ptr, ptr %7, align 8
  %81 = load ptr, ptr %7, align 8
  %82 = getelementptr inbounds %struct._zend_string, ptr %81, i32 0, i32 2
  %83 = load i64, ptr %82, align 8
  %84 = add i64 24, %83
  %85 = add i64 %84, 1
  %86 = call i32 @zend_shared_memdup_size(ptr noundef %80, i64 noundef %85)
  %87 = sext i32 %86 to i64
  %88 = load ptr, ptr getelementptr inbounds (%struct._zend_accel_globals, ptr @accel_globals, i32 0, i32 20), align 8
  %89 = getelementptr inbounds %struct._zend_persistent_script, ptr %88, i32 0, i32 12
  %90 = load i64, ptr %89, align 8
  %91 = add i64 %90, %87
  store i64 %91, ptr %89, align 8
  br label %129

92:                                               ; preds = %74
  %93 = load ptr, ptr %7, align 8
  %94 = load ptr, ptr @accel_shared_globals, align 8
  %95 = getelementptr inbounds %struct._zend_accel_shared_globals, ptr %94, i32 0, i32 22
  %96 = getelementptr inbounds %struct._zend_string_table, ptr %95, i32 0, i32 2
  %97 = load ptr, ptr %96, align 8
  %98 = icmp uge ptr %93, %97
  br i1 %98, label %99, label %106

99:                                               ; preds = %92
  %100 = load ptr, ptr %7, align 8
  %101 = load ptr, ptr @accel_shared_globals, align 8
  %102 = getelementptr inbounds %struct._zend_accel_shared_globals, ptr %101, i32 0, i32 22
  %103 = getelementptr inbounds %struct._zend_string_table, ptr %102, i32 0, i32 3
  %104 = load ptr, ptr %103, align 8
  %105 = icmp ult ptr %100, %104
  br i1 %105, label %128, label %106

106:                                              ; preds = %99, %92
  %107 = load ptr, ptr %7, align 8
  %108 = call ptr @accel_new_interned_string(ptr noundef %107)
  store ptr %108, ptr %8, align 8
  %109 = load ptr, ptr %8, align 8
  %110 = load ptr, ptr %7, align 8
  %111 = icmp ne ptr %109, %110
  br i1 %111, label %112, label %114

112:                                              ; preds = %106
  %113 = load ptr, ptr %8, align 8
  store ptr %113, ptr %7, align 8
  br label %127

114:                                              ; preds = %106
  %115 = load ptr, ptr %7, align 8
  %116 = load ptr, ptr %7, align 8
  %117 = getelementptr inbounds %struct._zend_string, ptr %116, i32 0, i32 2
  %118 = load i64, ptr %117, align 8
  %119 = add i64 24, %118
  %120 = add i64 %119, 1
  %121 = call i32 @zend_shared_memdup_size(ptr noundef %115, i64 noundef %120)
  %122 = sext i32 %121 to i64
  %123 = load ptr, ptr getelementptr inbounds (%struct._zend_accel_globals, ptr @accel_globals, i32 0, i32 20), align 8
  %124 = getelementptr inbounds %struct._zend_persistent_script, ptr %123, i32 0, i32 12
  %125 = load i64, ptr %124, align 8
  %126 = add i64 %125, %122
  store i64 %126, ptr %124, align 8
  br label %127

127:                                              ; preds = %114, %112
  br label %128

128:                                              ; preds = %127, %99
  br label %129

129:                                              ; preds = %128, %79
  br label %130

130:                                              ; preds = %129
  %131 = load ptr, ptr %7, align 8
  %132 = load ptr, ptr %3, align 8
  %133 = getelementptr inbounds %struct.zend_type, ptr %132, i32 0, i32 0
  store ptr %131, ptr %133, align 8
  br label %134

134:                                              ; preds = %130, %64
  br label %135

135:                                              ; preds = %134, %62
  %136 = load ptr, ptr %4, align 8
  %137 = getelementptr inbounds %struct.zend_type, ptr %136, i32 1
  store ptr %137, ptr %4, align 8
  %138 = load ptr, ptr %5, align 8
  %139 = icmp ult ptr %137, %138
  br i1 %139, label %55, label %140

140:                                              ; preds = %135
  br label %141

141:                                              ; preds = %140
  ret void
}