; Function Attrs: nounwind uwtable
define internal fastcc void @zend_persist_type_calc(ptr noundef %0) unnamed_addr #0 {
  %2 = getelementptr inbounds i8, ptr %0, i64 8
  %3 = load i32, ptr %2, align 8
  %4 = and i32 %3, 4194304
  %.not = icmp eq i32 %4, 0
  br i1 %.not, label %17, label %5

5:                                                ; preds = %1
  %6 = load ptr, ptr %0, align 8
  %7 = load i32, ptr %6, align 8
  %8 = add i32 %7, -1
  %9 = zext i32 %8 to i64
  %10 = shl nuw nsw i64 %9, 4
  %11 = add nuw nsw i64 %10, 31
  %12 = and i64 %11, 137438953464
  %13 = load ptr, ptr getelementptr inbounds (%struct._zend_accel_globals, ptr @accel_globals, i64 0, i32 20), align 8
  %14 = getelementptr inbounds i8, ptr %13, i64 424
  %15 = load i64, ptr %14, align 8
  %16 = add i64 %12, %15
  store i64 %16, ptr %14, align 8
  %.pre = load i32, ptr %2, align 8
  br label %17

17:                                               ; preds = %1, %5
  %18 = phi i32 [ %3, %1 ], [ %.pre, %5 ]
  %19 = and i32 %18, 4194304
  %.not33 = icmp eq i32 %19, 0
  br i1 %.not33, label %26, label %20

20:                                               ; preds = %17
  %21 = load ptr, ptr %0, align 8
  %22 = getelementptr inbounds i8, ptr %21, i64 8
  %23 = load i32, ptr %21, align 8
  %24 = zext i32 %23 to i64
  %25 = getelementptr inbounds %struct.zend_type, ptr %22, i64 %24
  br label %28

26:                                               ; preds = %17
  %27 = getelementptr inbounds i8, ptr %0, i64 16
  br label %28

28:                                               ; preds = %26, %20
  %.029 = phi ptr [ %25, %20 ], [ %27, %26 ]
  %.0 = phi ptr [ %22, %20 ], [ %0, %26 ]
  br label %29

29:                                               ; preds = %62, %28
  %.1 = phi ptr [ %.0, %28 ], [ %63, %62 ]
  %30 = getelementptr inbounds i8, ptr %.1, i64 8
  %31 = load i32, ptr %30, align 8
  %32 = and i32 %31, 4194304
  %.not34 = icmp eq i32 %32, 0
  br i1 %.not34, label %34, label %33

33:                                               ; preds = %29
  tail call fastcc void @zend_persist_type_calc(ptr noundef nonnull %.1)
  br label %62

34:                                               ; preds = %29
  %35 = and i32 %31, 16777216
  %.not35 = icmp eq i32 %35, 0
  br i1 %.not35, label %62, label %36

36:                                               ; preds = %34
  %37 = load ptr, ptr %.1, align 8
  %38 = load ptr, ptr getelementptr inbounds (%struct._zend_accel_globals, ptr @accel_globals, i64 0, i32 20), align 8
  %39 = getelementptr inbounds i8, ptr %38, i64 384
  %40 = load i8, ptr %39, align 8
  %41 = and i8 %40, 1
  %.not36 = icmp eq i8 %41, 0
  br i1 %.not36, label %42, label %.sink.split

42:                                               ; preds = %36
  %43 = load ptr, ptr @accel_shared_globals, align 8
  %44 = getelementptr inbounds i8, ptr %43, i64 176
  %45 = load ptr, ptr %44, align 8
  %.not37 = icmp ult ptr %37, %45
  br i1 %.not37, label %50, label %46

46:                                               ; preds = %42
  %47 = getelementptr inbounds i8, ptr %43, i64 184
  %48 = load ptr, ptr %47, align 8
  %49 = icmp ult ptr %37, %48
  br i1 %49, label %61, label %50

50:                                               ; preds = %46, %42
  %51 = tail call ptr @accel_new_interned_string(ptr noundef %37) #4
  %.not38 = icmp eq ptr %51, %37
  br i1 %.not38, label %.sink.split, label %61

.sink.split:                                      ; preds = %50, %36
  %52 = getelementptr inbounds i8, ptr %37, i64 16
  %53 = load i64, ptr %52, align 8
  %54 = add i64 %53, 25
  %55 = tail call i32 @zend_shared_memdup_size(ptr noundef %37, i64 noundef %54) #4
  %56 = sext i32 %55 to i64
  %57 = load ptr, ptr getelementptr inbounds (%struct._zend_accel_globals, ptr @accel_globals, i64 0, i32 20), align 8
  %58 = getelementptr inbounds i8, ptr %57, i64 424
  %59 = load i64, ptr %58, align 8
  %60 = add i64 %59, %56
  store i64 %60, ptr %58, align 8
  br label %61

61:                                               ; preds = %.sink.split, %50, %46
  %.028 = phi ptr [ %37, %46 ], [ %51, %50 ], [ %37, %.sink.split ]
  store ptr %.028, ptr %.1, align 8
  br label %62

62:                                               ; preds = %34, %61, %33
  %63 = getelementptr inbounds i8, ptr %.1, i64 16
  %64 = icmp ult ptr %63, %.029
  br i1 %64, label %29, label %65

65:                                               ; preds = %62
  ret void
}